target datalayout = "e-m:e-p270:32:32-p271:32:32-p272:64:64-i64:64-i128:128-f80:128-n8:16:32:64-S128"
target triple = "x86_64-pc-linux-gnu"

%struct.catclist = type { i32, i32, %struct.dlist_node, [4 x i64], i32, i8, i8, i16, i32, ptr, [0 x ptr] }
%struct.dlist_node = type { ptr, ptr }
%struct.catctup = type { i32, i32, [4 x i64], %struct.dlist_node, i32, i8, i8, %struct.HeapTupleData, ptr, ptr }
%struct.HeapTupleData = type { i32, %struct.ItemPointerData, i32, ptr }
%struct.ItemPointerData = type { %struct.BlockIdData, i16 }
%struct.BlockIdData = type { i16, i16 }
%struct.FormData_pg_amop = type { i32, i32, i32, i32, i16, i8, i32, i32, i32 }
%struct.HeapTupleHeaderData = type { %union.anon, %struct.ItemPointerData, i16, i16, i8, [0 x i8] }
%union.anon = type { %struct.HeapTupleFields }
%struct.HeapTupleFields = type { i32, i32, %union.anon.1 }
%union.anon.1 = type { i32 }

; Function Attrs: inlinehint nounwind uwtable
define internal ptr @GETSTRUCT(ptr noundef %0) #2 {
  %2 = alloca ptr, align 8
  store ptr %0, ptr %2, align 8
  %3 = load ptr, ptr %2, align 8
  %4 = getelementptr inbounds nuw %struct.HeapTupleData, ptr %3, i32 0, i32 3
  %5 = load ptr, ptr %4, align 8
  %6 = load ptr, ptr %2, align 8
  %7 = getelementptr inbounds nuw %struct.HeapTupleData, ptr %6, i32 0, i32 3
  %8 = load ptr, ptr %7, align 8
  %9 = getelementptr inbounds nuw %struct.HeapTupleHeaderData, ptr %8, i32 0, i32 4
  %10 = load i8, ptr %9, align 2
  %11 = zext i8 %10 to i32
  %12 = sext i32 %11 to i64
  %13 = getelementptr inbounds i8, ptr %5, i64 %12
  ret ptr %13
}

; Function Attrs: inlinehint nounwind uwtable
define internal i64 @ObjectIdGetDatum(i32 noundef %0) #2 {
  %2 = alloca i32, align 4
  store i32 %0, ptr %2, align 4
  %3 = load i32, ptr %2, align 4
  %4 = zext i32 %3 to i64
  ret i64 %4
}

; Function Attrs: nounwind uwtable
define dso_local zeroext i1 @spgproperty(i32 noundef %0, i32 noundef %1, i32 noundef %2, ptr noundef %3, ptr noundef %4, ptr noundef %5) #0 {
  %7 = alloca i1, align 1
  %8 = alloca i32, align 4
  %9 = alloca i32, align 4
  %10 = alloca i32, align 4
  %11 = alloca ptr, align 8
  %12 = alloca ptr, align 8
  %13 = alloca ptr, align 8
  %14 = alloca i32, align 4
  %15 = alloca i32, align 4
  %16 = alloca i32, align 4
  %17 = alloca ptr, align 8
  %18 = alloca i32, align 4
  %19 = alloca i32, align 4
  %20 = alloca ptr, align 8
  %21 = alloca ptr, align 8
  store i32 %0, ptr %8, align 4
  store i32 %1, ptr %9, align 4
  store i32 %2, ptr %10, align 4
  store ptr %3, ptr %11, align 8
  store ptr %4, ptr %12, align 8
  store ptr %5, ptr %13, align 8
  call void @llvm.lifetime.start.p0(i64 4, ptr %14) #7
  call void @llvm.lifetime.start.p0(i64 4, ptr %15) #7
  call void @llvm.lifetime.start.p0(i64 4, ptr %16) #7
  call void @llvm.lifetime.start.p0(i64 8, ptr %17) #7
  call void @llvm.lifetime.start.p0(i64 4, ptr %18) #7
  %22 = load i32, ptr %9, align 4
  %23 = icmp eq i32 %22, 0
  br i1 %23, label %24, label %25

24:                                               ; preds = %6
  store i1 false, ptr %7, align 1
  store i32 1, ptr %19, align 4
  br label %100

25:                                               ; preds = %6
  %26 = load i32, ptr %10, align 4
  switch i32 %26, label %27 [
    i32 6, label %28
  ]

27:                                               ; preds = %25
  store i1 false, ptr %7, align 1
  store i32 1, ptr %19, align 4
  br label %100

28:                                               ; preds = %25
  %29 = load i32, ptr %8, align 4
  %30 = load i32, ptr %9, align 4
  %31 = call i32 @get_index_column_opclass(i32 noundef %29, i32 noundef %30)
  store i32 %31, ptr %14, align 4
  %32 = load i32, ptr %14, align 4
  %33 = icmp ne i32 %32, 0
  br i1 %33, label %36, label %34

34:                                               ; preds = %28
  %35 = load ptr, ptr %13, align 8
  store i8 1, ptr %35, align 1
  store i1 true, ptr %7, align 1
  store i32 1, ptr %19, align 4
  br label %100

36:                                               ; preds = %28
  %37 = load i32, ptr %14, align 4
  %38 = call zeroext i1 @get_opclass_opfamily_and_input_type(i32 noundef %37, ptr noundef %15, ptr noundef %16)
  br i1 %38, label %41, label %39

39:                                               ; preds = %36
  %40 = load ptr, ptr %13, align 8
  store i8 1, ptr %40, align 1
  store i1 true, ptr %7, align 1
  store i32 1, ptr %19, align 4
  br label %100

41:                                               ; preds = %36
  %42 = load i32, ptr %15, align 4
  %43 = call i64 @ObjectIdGetDatum(i32 noundef %42)
  %44 = call ptr @SearchSysCacheList(i32 noundef 4, i32 noundef 1, i64 noundef %43, i64 noundef 0, i64 noundef 0)
  store ptr %44, ptr %17, align 8
  %45 = load ptr, ptr %12, align 8
  store i8 0, ptr %45, align 1
  store i32 0, ptr %18, align 4
  br label %46

46:                                               ; preds = %94, %41
  %47 = load i32, ptr %18, align 4
  %48 = load ptr, ptr %17, align 8
  %49 = getelementptr inbounds nuw %struct.catclist, ptr %48, i32 0, i32 8
  %50 = load i32, ptr %49, align 8
  %51 = icmp slt i32 %47, %50
  br i1 %51, label %52, label %97

52:                                               ; preds = %46
  call void @llvm.lifetime.start.p0(i64 8, ptr %20) #7
  %53 = load ptr, ptr %17, align 8
  %54 = getelementptr inbounds nuw %struct.catclist, ptr %53, i32 0, i32 10
  %55 = load i32, ptr %18, align 4
  %56 = sext i32 %55 to i64
  %57 = getelementptr inbounds [0 x ptr], ptr %54, i64 0, i64 %56
  %58 = load ptr, ptr %57, align 8
  %59 = getelementptr inbounds nuw %struct.catctup, ptr %58, i32 0, i32 7
  store ptr %59, ptr %20, align 8
  call void @llvm.lifetime.start.p0(i64 8, ptr %21) #7
  %60 = load ptr, ptr %20, align 8
  %61 = call ptr @GETSTRUCT(ptr noundef %60)
  store ptr %61, ptr %21, align 8
  %62 = load ptr, ptr %21, align 8
  %63 = getelementptr inbounds nuw %struct.FormData_pg_amop, ptr %62, i32 0, i32 5
  %64 = load i8, ptr %63, align 2
  %65 = sext i8 %64 to i32
  %66 = icmp eq i32 %65, 111
  br i1 %66, label %67, label %90

67:                                               ; preds = %52
  %68 = load ptr, ptr %21, align 8
  %69 = getelementptr inbounds nuw %struct.FormData_pg_amop, ptr %68, i32 0, i32 2
  %70 = load i32, ptr %69, align 4
  %71 = load i32, ptr %16, align 4
  %72 = icmp eq i32 %70, %71
  br i1 %72, label %79, label %73

73:                                               ; preds = %67
  %74 = load ptr, ptr %21, align 8
  %75 = getelementptr inbounds nuw %struct.FormData_pg_amop, ptr %74, i32 0, i32 3
  %76 = load i32, ptr %75, align 4
  %77 = load i32, ptr %16, align 4
  %78 = icmp eq i32 %76, %77
  br i1 %78, label %79, label %90

79:                                               ; preds = %73, %67
  %80 = load ptr, ptr %21, align 8
  %81 = getelementptr inbounds nuw %struct.FormData_pg_amop, ptr %80, i32 0, i32 8
  %82 = load i32, ptr %81, align 4
  %83 = load ptr, ptr %21, align 8
  %84 = getelementptr inbounds nuw %struct.FormData_pg_amop, ptr %83, i32 0, i32 6
  %85 = load i32, ptr %84, align 4
  %86 = call i32 @get_op_rettype(i32 noundef %85)
  %87 = call zeroext i1 @opfamily_can_sort_type(i32 noundef %82, i32 noundef %86)
  br i1 %87, label %88, label %90

88:                                               ; preds = %79
  %89 = load ptr, ptr %12, align 8
  store i8 1, ptr %89, align 1
  store i32 3, ptr %19, align 4
  br label %91

90:                                               ; preds = %79, %73, %52
  store i32 0, ptr %19, align 4
  br label %91

91:                                               ; preds = %90, %88
  call void @llvm.lifetime.end.p0(i64 8, ptr %21) #7
  call void @llvm.lifetime.end.p0(i64 8, ptr %20) #7
  %92 = load i32, ptr %19, align 4
  switch i32 %92, label %102 [
    i32 0, label %93
    i32 3, label %97
  ]

93:                                               ; preds = %91
  br label %94

94:                                               ; preds = %93
  %95 = load i32, ptr %18, align 4
  %96 = add i32 %95, 1
  store i32 %96, ptr %18, align 4
  br label %46, !llvm.loop !6

97:                                               ; preds = %91, %46
  %98 = load ptr, ptr %17, align 8
  call void @ReleaseCatCacheList(ptr noundef %98)
  %99 = load ptr, ptr %13, align 8
  store i8 0, ptr %99, align 1
  store i1 true, ptr %7, align 1
  store i32 1, ptr %19, align 4
  br label %100

100:                                              ; preds = %97, %39, %34, %27, %24
  call void @llvm.lifetime.end.p0(i64 4, ptr %18) #7
  call void @llvm.lifetime.end.p0(i64 8, ptr %17) #7
  call void @llvm.lifetime.end.p0(i64 4, ptr %16) #7
  call void @llvm.lifetime.end.p0(i64 4, ptr %15) #7
  call void @llvm.lifetime.end.p0(i64 4, ptr %14) #7
  %101 = load i1, ptr %7, align 1
  ret i1 %101

102:                                              ; preds = %91
  unreachable
}