; Function Attrs: nounwind uwtable
define dso_local noundef zeroext i1 @spgproperty(i32 noundef %0, i32 noundef %1, i32 noundef %2, ptr readnone captures(none) %3, ptr noundef writeonly captures(none) %4, ptr noundef writeonly captures(none) %5) #0 {
  %7 = alloca i32, align 4
  %8 = alloca i32, align 4
  call void @llvm.lifetime.start.p0(i64 4, ptr nonnull %7) #10
  call void @llvm.lifetime.start.p0(i64 4, ptr nonnull %8) #10
  %9 = icmp ne i32 %1, 0
  %cond = icmp eq i32 %2, 6
  %or.cond = and i1 %9, %cond
  br i1 %or.cond, label %10, label %55

10:                                               ; preds = %6
  %11 = tail call i32 @get_index_column_opclass(i32 noundef %0, i32 noundef %1) #10
  %.not = icmp eq i32 %11, 0
  br i1 %.not, label %.sink.split, label %12

12:                                               ; preds = %10
  %13 = call zeroext i1 @get_opclass_opfamily_and_input_type(i32 noundef %11, ptr noundef nonnull %7, ptr noundef nonnull %8) #10
  br i1 %13, label %14, label %.sink.split

14:                                               ; preds = %12
  %15 = load i32, ptr %7, align 4
  %16 = zext i32 %15 to i64
  %17 = call ptr @SearchSysCacheList(i32 noundef 4, i32 noundef 1, i64 noundef %16, i64 noundef 0, i64 noundef 0) #10
  store i8 0, ptr %4, align 1
  %18 = getelementptr inbounds nuw i8, ptr %17, i64 64
  %19 = load i32, ptr %18, align 8
  %20 = icmp sgt i32 %19, 0
  br i1 %20, label %.lr.ph, label %.loopexit

.lr.ph:                                           ; preds = %14
  %21 = getelementptr inbounds nuw i8, ptr %17, i64 80
  br label %22

22:                                               ; preds = %.lr.ph, %51
  %23 = phi i32 [ %19, %.lr.ph ], [ %52, %51 ]
  %indvars.iv = phi i64 [ 0, %.lr.ph ], [ %indvars.iv.next, %51 ]
  %24 = getelementptr inbounds nuw [0 x ptr], ptr %21, i64 0, i64 %indvars.iv
  %25 = load ptr, ptr %24, align 8
  %26 = getelementptr i8, ptr %25, i64 80
  %.val = load ptr, ptr %26, align 8
  %27 = getelementptr inbounds nuw i8, ptr %.val, i64 22
  %28 = load i8, ptr %27, align 2
  %29 = zext i8 %28 to i64
  %30 = getelementptr inbounds nuw i8, ptr %.val, i64 %29
  %31 = getelementptr inbounds nuw i8, ptr %30, i64 18
  %32 = load i8, ptr %31, align 2
  %33 = icmp eq i8 %32, 111
  br i1 %33, label %34, label %51

34:                                               ; preds = %22
  %35 = getelementptr inbounds nuw i8, ptr %30, i64 8
  %36 = load i32, ptr %35, align 4
  %37 = load i32, ptr %8, align 4
  %38 = icmp eq i32 %36, %37
  br i1 %38, label %43, label %39

39:                                               ; preds = %34
  %40 = getelementptr inbounds nuw i8, ptr %30, i64 12
  %41 = load i32, ptr %40, align 4
  %42 = icmp eq i32 %41, %37
  br i1 %42, label %43, label %51

43:                                               ; preds = %39, %34
  %44 = getelementptr inbounds nuw i8, ptr %30, i64 28
  %45 = load i32, ptr %44, align 4
  %46 = getelementptr inbounds nuw i8, ptr %30, i64 20
  %47 = load i32, ptr %46, align 4
  %48 = call i32 @get_op_rettype(i32 noundef %47) #10
  %49 = call zeroext i1 @opfamily_can_sort_type(i32 noundef %45, i32 noundef %48) #10
  br i1 %49, label %50, label %._crit_edge

._crit_edge:                                      ; preds = %43
  %.pre = load i32, ptr %18, align 8
  br label %51

50:                                               ; preds = %43
  store i8 1, ptr %4, align 1
  br label %.loopexit

51:                                               ; preds = %._crit_edge, %39, %22
  %52 = phi i32 [ %.pre, %._crit_edge ], [ %23, %39 ], [ %23, %22 ]
  %indvars.iv.next = add nuw nsw i64 %indvars.iv, 1
  %53 = sext i32 %52 to i64
  %54 = icmp slt i64 %indvars.iv.next, %53
  br i1 %54, label %22, label %.loopexit, !llvm.loop !4

.loopexit:                                        ; preds = %51, %14, %50
  call void @ReleaseCatCacheList(ptr noundef nonnull %17) #10
  br label %.sink.split

.sink.split:                                      ; preds = %12, %10, %.loopexit
  %.sink = phi i8 [ 0, %.loopexit ], [ 1, %10 ], [ 1, %12 ]
  store i8 %.sink, ptr %5, align 1
  br label %55

55:                                               ; preds = %.sink.split, %6
  call void @llvm.lifetime.end.p0(i64 4, ptr nonnull %8) #10
  call void @llvm.lifetime.end.p0(i64 4, ptr nonnull %7) #10
  ret i1 %or.cond
}